; Function Attrs: mustprogress nounwind uwtable
define dso_local void @_ZN4node9inspector8protocol14UberDispatcher15registerBackendERKNSt7__cxx1112basic_stringIcSt11char_traitsIcESaIcEEESt10unique_ptrINS1_14DispatcherBaseESt14default_deleteISC_EE(ptr noundef nonnull align 8 dereferenceable(128) %this, ptr noundef nonnull align 8 dereferenceable(32) %name, ptr nocapture noundef %dispatcher) local_unnamed_addr #1 align 2 {
entry:
  %m_dispatchers = getelementptr inbounds i8, ptr %this, i64 72
  %call.i = tail call noundef nonnull align 8 dereferenceable(8) ptr @_ZNSt8__detail9_Map_baseINSt7__cxx1112basic_stringIcSt11char_traitsIcESaIcEEESt4pairIKS6_St10unique_ptrIN4node9inspector8protocol14DispatcherBaseESt14default_deleteISD_EEESaISH_ENS_10_Select1stESt8equal_toIS6_ESt4hashIS6_ENS_18_Mod_range_hashingENS_20_Default_ranged_hashENS_20_Prime_rehash_policyENS_17_Hashtable_traitsILb1ELb0ELb1EEELb1EEixERS8_(ptr noundef nonnull align 1 dereferenceable(1) %m_dispatchers, ptr noundef nonnull align 8 dereferenceable(32) %name)
  %0 = load ptr, ptr %dispatcher, align 8
  store ptr null, ptr %dispatcher, align 8
  %1 = load ptr, ptr %call.i, align 8
  store ptr %0, ptr %call.i, align 8
  %tobool.not.i.i.i.i = icmp eq ptr %1, null
  br i1 %tobool.not.i.i.i.i, label %_ZNSt10unique_ptrIN4node9inspector8protocol14DispatcherBaseESt14default_deleteIS3_EEaSEOS6_.exit, label %_ZNKSt14default_deleteIN4node9inspector8protocol14DispatcherBaseEEclEPS3_.exit.i.i.i.i

_ZNKSt14default_deleteIN4node9inspector8protocol14DispatcherBaseEEclEPS3_.exit.i.i.i.i: ; preds = %entry
  %vtable.i.i.i.i.i = load ptr, ptr %1, align 8
  %vfn.i.i.i.i.i = getelementptr inbounds i8, ptr %vtable.i.i.i.i.i, i64 8
  %2 = load ptr, ptr %vfn.i.i.i.i.i, align 8
  tail call void %2(ptr noundef nonnull align 8 dereferenceable(72) %1) #27
  br label %_ZNSt10unique_ptrIN4node9inspector8protocol14DispatcherBaseESt14default_deleteIS3_EEaSEOS6_.exit

_ZNSt10unique_ptrIN4node9inspector8protocol14DispatcherBaseESt14default_deleteIS3_EEaSEOS6_.exit: ; preds = %entry, %_ZNKSt14default_deleteIN4node9inspector8protocol14DispatcherBaseEEclEPS3_.exit.i.i.i.i
  ret void
}